; Function Attrs: nounwind uwtable
define internal void @sep_downsample(ptr noundef %0, ptr nocapture noundef readonly %1, i32 noundef %2, ptr nocapture noundef readonly %3, i32 noundef %4) #0 {
  %6 = getelementptr inbounds i8, ptr %0, i64 76
  %7 = load i32, ptr %6, align 4
  %8 = icmp sgt i32 %7, 0
  br i1 %8, label %.lr.ph, label %._crit_edge

.lr.ph:                                           ; preds = %5
  %9 = getelementptr inbounds i8, ptr %0, i64 88
  %10 = load ptr, ptr %9, align 8
  %11 = getelementptr inbounds i8, ptr %0, i64 480
  %12 = load ptr, ptr %11, align 8
  %13 = zext i32 %2 to i64
  %14 = getelementptr inbounds i8, ptr %12, i64 40
  br label %15

15:                                               ; preds = %.lr.ph, %15
  %indvars.iv = phi i64 [ 0, %.lr.ph ], [ %indvars.iv.next, %15 ]
  %.01819 = phi ptr [ %10, %.lr.ph ], [ %28, %15 ]
  %16 = getelementptr inbounds ptr, ptr %1, i64 %indvars.iv
  %17 = load ptr, ptr %16, align 8
  %18 = getelementptr inbounds ptr, ptr %17, i64 %13
  %19 = getelementptr inbounds ptr, ptr %3, i64 %indvars.iv
  %20 = load ptr, ptr %19, align 8
  %21 = getelementptr inbounds i8, ptr %.01819, i64 12
  %22 = load i32, ptr %21, align 4
  %23 = mul i32 %22, %4
  %24 = zext i32 %23 to i64
  %25 = getelementptr inbounds ptr, ptr %20, i64 %24
  %26 = getelementptr inbounds [10 x ptr], ptr %14, i64 0, i64 %indvars.iv
  %27 = load ptr, ptr %26, align 8
  tail call void %27(ptr noundef nonnull %0, ptr noundef %.01819, ptr noundef %18, ptr noundef %25) #5
  %indvars.iv.next = add nuw nsw i64 %indvars.iv, 1
  %28 = getelementptr inbounds i8, ptr %.01819, i64 96
  %29 = load i32, ptr %6, align 4
  %30 = sext i32 %29 to i64
  %31 = icmp slt i64 %indvars.iv.next, %30
  br i1 %31, label %15, label %._crit_edge, !llvm.loop !6

._crit_edge:                                      ; preds = %15, %5
  ret void
}